; Function Attrs: mustprogress nounwind uwtable
define hidden noundef i64 @_ZN13G1AllocRegion23fill_up_remaining_spaceEP12G1HeapRegion(ptr nocapture noundef nonnull readnone align 8 dereferenceable(36) %0, ptr noundef %1) local_unnamed_addr #1 align 2 {
  %3 = getelementptr inbounds i8, ptr %1, i64 16
  %4 = load volatile ptr, ptr %3, align 8
  %5 = getelementptr inbounds i8, ptr %1, i64 8
  %6 = load ptr, ptr %5, align 8
  %7 = ptrtoint ptr %6 to i64
  %8 = ptrtoint ptr %4 to i64
  %9 = sub i64 %7, %8
  %10 = load i32, ptr @MinObjAlignment, align 4
  %11 = add i32 %10, 1
  %12 = sub i32 0, %10
  %13 = and i32 %11, %12
  %14 = sext i32 %13 to i64
  %.01725 = lshr i64 %9, 3
  %.not26 = icmp ult i64 %.01725, %14
  br i1 %.not26, label %.loopexit, label %.preheader

.preheader:                                       ; preds = %2, %_ZN13G1AllocRegion12par_allocateEP12G1HeapRegionm.exit.thread
  %.01728 = phi i64 [ %.017, %_ZN13G1AllocRegion12par_allocateEP12G1HeapRegionm.exit.thread ], [ %.01725, %2 ]
  %.017.in27 = phi i64 [ %31, %_ZN13G1AllocRegion12par_allocateEP12G1HeapRegionm.exit.thread ], [ %9, %2 ]
  br label %15

15:                                               ; preds = %.preheader, %22
  %16 = load volatile ptr, ptr %3, align 8
  %17 = load ptr, ptr %5, align 8
  %18 = ptrtoint ptr %17 to i64
  %19 = ptrtoint ptr %16 to i64
  %20 = sub i64 %18, %19
  %21 = lshr i64 %20, 3
  %.not.i.i = icmp ult i64 %21, %.01728
  br i1 %.not.i.i, label %_ZN13G1AllocRegion12par_allocateEP12G1HeapRegionm.exit.thread, label %22

22:                                               ; preds = %15
  %23 = getelementptr inbounds ptr, ptr %16, i64 %.01728
  %24 = tail call noundef ptr asm sideeffect "lock cmpxchgq $1,($3)", "={ax},r,{ax},r,~{cc},~{memory},~{dirflag},~{fpsr},~{flags}"(ptr %23, ptr %16, ptr nonnull %3) #12, !srcloc !6
  %25 = icmp eq ptr %24, %16
  br i1 %25, label %_ZN13G1AllocRegion12par_allocateEP12G1HeapRegionm.exit, label %15, !llvm.loop !7

_ZN13G1AllocRegion12par_allocateEP12G1HeapRegionm.exit: ; preds = %22
  %.not19 = icmp eq ptr %16, null
  br i1 %.not19, label %_ZN13G1AllocRegion12par_allocateEP12G1HeapRegionm.exit._ZN13G1AllocRegion12par_allocateEP12G1HeapRegionm.exit.thread_crit_edge, label %26

_ZN13G1AllocRegion12par_allocateEP12G1HeapRegionm.exit._ZN13G1AllocRegion12par_allocateEP12G1HeapRegionm.exit.thread_crit_edge: ; preds = %_ZN13G1AllocRegion12par_allocateEP12G1HeapRegionm.exit
  %.pre = load ptr, ptr %5, align 8
  %.pre34 = ptrtoint ptr %.pre to i64
  br label %_ZN13G1AllocRegion12par_allocateEP12G1HeapRegionm.exit.thread

26:                                               ; preds = %_ZN13G1AllocRegion12par_allocateEP12G1HeapRegionm.exit
  tail call void @_ZN12G1HeapRegion22fill_with_dummy_objectEPP12HeapWordImplmb(ptr noundef nonnull align 8 dereferenceable(136) %1, ptr noundef nonnull %16, i64 noundef %.01728, i1 noundef zeroext true) #12
  %27 = getelementptr inbounds i8, ptr %1, i64 32
  store ptr %16, ptr %27, align 8
  %28 = and i64 %.017.in27, -8
  %.pre32 = load ptr, ptr %5, align 8
  %.pre33 = ptrtoint ptr %.pre32 to i64
  br label %.loopexit

_ZN13G1AllocRegion12par_allocateEP12G1HeapRegionm.exit.thread: ; preds = %15, %_ZN13G1AllocRegion12par_allocateEP12G1HeapRegionm.exit._ZN13G1AllocRegion12par_allocateEP12G1HeapRegionm.exit.thread_crit_edge
  %.pre-phi35 = phi i64 [ %.pre34, %_ZN13G1AllocRegion12par_allocateEP12G1HeapRegionm.exit._ZN13G1AllocRegion12par_allocateEP12G1HeapRegionm.exit.thread_crit_edge ], [ %18, %15 ]
  %29 = load volatile ptr, ptr %3, align 8
  %30 = ptrtoint ptr %29 to i64
  %31 = sub i64 %.pre-phi35, %30
  %.017 = lshr i64 %31, 3
  %.not = icmp ult i64 %.017, %14
  br i1 %.not, label %.loopexit, label %.preheader, !llvm.loop !9

.loopexit:                                        ; preds = %_ZN13G1AllocRegion12par_allocateEP12G1HeapRegionm.exit.thread, %2, %26
  %.pre-phi = phi i64 [ %7, %2 ], [ %.pre33, %26 ], [ %.pre-phi35, %_ZN13G1AllocRegion12par_allocateEP12G1HeapRegionm.exit.thread ]
  %.0 = phi i64 [ 0, %2 ], [ %28, %26 ], [ 0, %_ZN13G1AllocRegion12par_allocateEP12G1HeapRegionm.exit.thread ]
  %32 = load volatile ptr, ptr %3, align 8
  %33 = ptrtoint ptr %32 to i64
  %34 = sub i64 %.0, %33
  %35 = add i64 %34, %.pre-phi
  ret i64 %35
}